; Function Attrs: mustprogress nofree norecurse nosync nounwind willreturn memory(argmem: read) uwtable
define internal i32 @Predictor13_SSE2(ptr noundef readonly captures(none) %0, ptr noundef readonly captures(none) %1) #1 {
  %3 = load i32, ptr %0, align 4, !tbaa !7
  %4 = load i32, ptr %1, align 4, !tbaa !7
  %5 = getelementptr inbounds i8, ptr %1, i64 -4
  %6 = load i32, ptr %5, align 4, !tbaa !7
  %7 = insertelement <4 x i32> <i32 poison, i32 0, i32 poison, i32 poison>, i32 %3, i64 0
  %8 = bitcast <4 x i32> %7 to <16 x i8>
  %9 = shufflevector <16 x i8> %8, <16 x i8> <i8 0, i8 0, i8 0, i8 0, i8 0, i8 0, i8 0, i8 0, i8 poison, i8 poison, i8 poison, i8 poison, i8 poison, i8 poison, i8 poison, i8 poison>, <16 x i32> <i32 0, i32 16, i32 1, i32 17, i32 2, i32 18, i32 3, i32 19, i32 4, i32 20, i32 5, i32 21, i32 6, i32 22, i32 7, i32 23>
  %10 = insertelement <4 x i32> <i32 poison, i32 0, i32 poison, i32 poison>, i32 %4, i64 0
  %11 = bitcast <4 x i32> %10 to <16 x i8>
  %12 = shufflevector <16 x i8> %11, <16 x i8> <i8 0, i8 0, i8 0, i8 0, i8 0, i8 0, i8 0, i8 0, i8 poison, i8 poison, i8 poison, i8 poison, i8 poison, i8 poison, i8 poison, i8 poison>, <16 x i32> <i32 0, i32 16, i32 1, i32 17, i32 2, i32 18, i32 3, i32 19, i32 4, i32 20, i32 5, i32 21, i32 6, i32 22, i32 7, i32 23>
  %13 = insertelement <4 x i32> <i32 poison, i32 0, i32 poison, i32 poison>, i32 %6, i64 0
  %14 = bitcast <4 x i32> %13 to <16 x i8>
  %15 = shufflevector <16 x i8> %14, <16 x i8> <i8 0, i8 0, i8 0, i8 0, i8 0, i8 0, i8 0, i8 0, i8 poison, i8 poison, i8 poison, i8 poison, i8 poison, i8 poison, i8 poison, i8 poison>, <16 x i32> <i32 0, i32 16, i32 1, i32 17, i32 2, i32 18, i32 3, i32 19, i32 4, i32 20, i32 5, i32 21, i32 6, i32 22, i32 7, i32 23>
  %16 = bitcast <16 x i8> %12 to <8 x i16>
  %17 = bitcast <16 x i8> %9 to <8 x i16>
  %18 = add nuw nsw <8 x i16> %16, %17
  %19 = lshr <8 x i16> %18, splat (i16 1)
  %20 = bitcast <16 x i8> %15 to <8 x i16>
  %21 = sub nsw <8 x i16> %19, %20
  %22 = icmp samesign ult <8 x i16> %19, %20
  %.neg.i = zext <8 x i1> %22 to <8 x i16>
  %23 = add nsw <8 x i16> %21, %.neg.i
  %24 = ashr <8 x i16> %23, splat (i16 1)
  %25 = add nsw <8 x i16> %24, %19
  %26 = tail call <16 x i8> @llvm.x86.sse2.packuswb.128(<8 x i16> %25, <8 x i16> poison)
  %27 = bitcast <16 x i8> %26 to <4 x i32>
  %28 = extractelement <4 x i32> %27, i64 0
  ret i32 %28
}